target datalayout = "e-m:e-p270:32:32-p271:32:32-p272:64:64-i64:64-i128:128-f80:128-n8:16:32:64-S128"
target triple = "x86_64-pc-linux-gnu"

; Function Attrs: nounwind uwtable
define hidden i32 @ChunkGetTagFromFourCC(ptr noundef %0) #0 {
  %2 = alloca ptr, align 8
  store ptr %0, ptr %2, align 8, !tbaa !26
  %3 = load ptr, ptr %2, align 8, !tbaa !26
  %4 = getelementptr inbounds i8, ptr %3, i64 0
  %5 = load i8, ptr %4, align 1, !tbaa !27
  %6 = sext i8 %5 to i32
  %7 = load ptr, ptr %2, align 8, !tbaa !26
  %8 = getelementptr inbounds i8, ptr %7, i64 1
  %9 = load i8, ptr %8, align 1, !tbaa !27
  %10 = sext i8 %9 to i32
  %11 = shl i32 %10, 8
  %12 = or i32 %6, %11
  %13 = load ptr, ptr %2, align 8, !tbaa !26
  %14 = getelementptr inbounds i8, ptr %13, i64 2
  %15 = load i8, ptr %14, align 1, !tbaa !27
  %16 = sext i8 %15 to i32
  %17 = shl i32 %16, 16
  %18 = or i32 %12, %17
  %19 = load ptr, ptr %2, align 8, !tbaa !26
  %20 = getelementptr inbounds i8, ptr %19, i64 3
  %21 = load i8, ptr %20, align 1, !tbaa !27
  %22 = sext i8 %21 to i32
  %23 = shl i32 %22, 24
  %24 = or i32 %18, %23
  ret i32 %24
}