; Function Attrs: mustprogress nofree norecurse nosync nounwind willreturn memory(argmem: read) uwtable
define hidden i32 @ChunkGetTagFromFourCC(ptr noundef readonly captures(none) %0) local_unnamed_addr #6 {
  %2 = load i8, ptr %0, align 1, !tbaa !21
  %3 = sext i8 %2 to i32
  %4 = getelementptr inbounds nuw i8, ptr %0, i64 1
  %5 = load i8, ptr %4, align 1, !tbaa !21
  %6 = sext i8 %5 to i32
  %7 = shl nsw i32 %6, 8
  %8 = or i32 %7, %3
  %9 = getelementptr inbounds nuw i8, ptr %0, i64 2
  %10 = load i8, ptr %9, align 1, !tbaa !21
  %11 = sext i8 %10 to i32
  %12 = shl nsw i32 %11, 16
  %13 = or i32 %8, %12
  %14 = getelementptr inbounds nuw i8, ptr %0, i64 3
  %15 = load i8, ptr %14, align 1, !tbaa !21
  %16 = sext i8 %15 to i32
  %17 = shl nsw i32 %16, 24
  %18 = or i32 %13, %17
  ret i32 %18
}